Certificate:
    Data:
        Version: 3 (0x2)
        Serial Number:
            ad:15:4e:92:3d:11:46:26:3c:05:ca:84:ea:71:76:18
        Signature Algorithm: sha256WithRSAEncryption
        Issuer: CN=Easy-RSA CA
        Validity
            Not Before: May 22 19:37:02 2023 GMT
            Not After : May 19 19:37:02 2033 GMT
        Subject: CN=client
        Subject Public Key Info:
            Public Key Algorithm: rsaEncryption
                Public-Key: (2048 bit)
                Modulus:
                    00:cc:4b:2d:01:37:42:05:05:c4:e6:e9:60:c0:5b:
                    04:70:c1:36:68:e1:3c:72:3f:dc:dd:fe:4f:b8:d4:
                    f2:94:da:56:37:ef:85:23:11:5e:b2:15:06:20:4d:
                    74:b5:9b:41:8c:f7:b0:20:27:db:c6:0b:c9:be:48:
                    9d:26:67:3c:a2:08:12:82:51:70:06:9a:c8:6f:38:
                    34:80:13:98:a0:b4:09:5c:3c:75:ec:73:c9:a2:a3:
                    81:3e:c7:a3:19:b7:7a:0a:c8:f1:17:6e:2b:ec:40:
                    af:53:4f:61:a1:31:75:ab:a7:a7:79:ef:47:d1:d4:
                    09:df:d7:91:b1:6a:d1:93:17:f9:fd:ff:a9:51:b3:
                    d5:83:a8:de:bc:a4:b6:68:3a:bc:d7:71:59:5c:73:
                    2b:bd:44:a4:9f:5a:8f:ef:fd:c5:2b:50:9f:7f:46:
                    a6:a3:e5:dd:70:64:4a:d0:eb:67:85:79:11:cb:3c:
                    8a:e0:b2:b2:a2:43:05:6b:72:04:24:65:10:ef:1f:
                    41:63:bd:40:03:26:38:20:c3:ba:42:ac:e7:1a:b9:
                    b1:d1:21:e1:24:d0:5c:d5:75:08:82:46:61:61:20:
                    b6:6c:c7:e1:c5:6e:57:9a:d0:a3:5d:10:b0:67:44:
                    d5:27:3a:03:fd:c3:c6:92:7d:b9:84:72:4a:10:5a:
                    7f:0d
                Exponent: 65537 (0x10001)
        X509v3 extensions:
            X509v3 Basic Constraints: 
                CA:FALSE
            X509v3 Subject Key Identifier: 
                96:2B:15:97:C5:D3:37:8A:4A:16:B8:DF:5B:B1:D4:B4:D4:54:21:EA
            X509v3 Authority Key Identifier: 
                keyid:DE:89:47:22:27:DE:5B:87:A7:1C:6C:C9:86:85:EE:2B:31:3F:44:7B
                DirName:/CN=Easy-RSA CA
                serial:3E:B6:8C:05:86:3D:91:D3:E9:66:E1:17:A0:3E:FB:4C:C6:6F:CB:68
            X509v3 Extended Key Usage: 
                TLS Web Client Authentication
            X509v3 Key Usage: 
                Digital Signature
    Signature Algorithm: sha256WithRSAEncryption
    Signature Value:
        8f:7b:12:f6:bd:15:30:58:72:b6:ab:c9:5f:f2:00:ac:03:5a:
        34:5a:71:83:31:39:af:b5:14:fa:7b:5f:5a:11:63:2a:62:c9:
        0f:c6:f8:3a:b6:0b:12:60:bf:29:e0:9d:ce:9c:38:05:b1:3e:
        e0:9d:3d:c4:f0:ee:2b:e1:59:95:a8:75:4c:4a:a1:a8:1a:3e:
        97:65:fd:e4:1c:7a:a3:8c:88:3d:2a:a3:ad:a7:21:3a:a4:d2:
        f5:48:1e:8e:8d:42:f9:6a:55:1e:b7:62:b7:0f:24:9c:1e:e5:
        81:87:30:9f:7a:8c:33:5a:49:94:70:68:c3:96:3e:2c:6c:7e:
        a8:06:5b:36:6c:2b:f7:34:16:d3:4f:18:b4:14:b3:3b:21:6d:
        4f:9f:41:e3:a5:53:5f:12:c0:62:01:6e:b3:6a:14:0a:7e:2b:
        5b:44:87:90:e1:b4:58:8f:38:9f:97:ce:b0:96:cc:21:e9:c8:
        6c:d2:4f:73:52:48:ad:98:0b:81:27:01:e7:8b:49:d5:75:6b:
        8c:57:8b:d4:e6:13:68:21:9a:87:cd:65:4e:cf:70:0e:a3:cc:
        82:2c:a4:77:04:9b:8f:d5:52:7f:b6:b7:e9:6f:41:44:b9:e4:
        2b:27:cc:d1:19:bc:12:5a:59:46:d7:2f:de:fa:eb:83:94:fb:
        72:77:ab:8a
-----BEGIN CERTIFICATE-----
MIIDVTCCAj2gAwIBAgIRAK0VTpI9EUYmPAXKhOpxdhgwDQYJKoZIhvcNAQELBQAw
FjEUMBIGA1UEAwwLRWFzeS1SU0EgQ0EwHhcNMjMwNTIyMTkzNzAyWhcNMzMwNTE5
MTkzNzAyWjARMQ8wDQYDVQQDDAZjbGllbnQwggEiMA0GCSqGSIb3DQEBAQUAA4IB
DwAwggEKAoIBAQDMSy0BN0IFBcTm6WDAWwRwwTZo4TxyP9zd/k+41PKU2lY374Uj
EV6yFQYgTXS1m0GM97AgJ9vGC8m+SJ0mZzyiCBKCUXAGmshvODSAE5igtAlcPHXs
c8mio4E+x6MZt3oKyPEXbivsQK9TT2GhMXWrp6d570fR1Anf15GxatGTF/n9/6lR
s9WDqN68pLZoOrzXcVlccyu9RKSfWo/v/cUrUJ9/Rqaj5d1wZErQ62eFeRHLPIrg
srKiQwVrcgQkZRDvH0FjvUADJjggw7pCrOcaubHRIeEk0FzVdQiCRmFhILZsx+HF
blea0KNdELBnRNUnOgP9w8aSfbmEckoQWn8NAgMBAAGjgaIwgZ8wCQYDVR0TBAIw
ADAdBgNVHQ4EFgQUlisVl8XTN4pKFrjfW7HUtNRUIeowUQYDVR0jBEowSIAU3olH
IifeW4enHGzJhoXuKzE/RHuhGqQYMBYxFDASBgNVBAMMC0Vhc3ktUlNBIENBghQ+
towFhj2R0+lm4RegPvtMxm/LaDATBgNVHSUEDDAKBggrBgEFBQcDAjALBgNVHQ8E
BAMCB4AwDQYJKoZIhvcNAQELBQADggEBAI97Eva9FTBYcraryV/yAKwDWjRacYMx
Oa+1FPp7X1oRYypiyQ/G+Dq2CxJgvyngnc6cOAWxPuCdPcTw7ivhWZWodUxKoaga
Ppdl/eQceqOMiD0qo62nITqk0vVIHo6NQvlqVR63YrcPJJwe5YGHMJ96jDNaSZRw
aMOWPixsfqgGWzZsK/c0FtNPGLQUszshbU+fQeOlU18SwGIBbrNqFAp+K1tEh5Dh
tFiPOJ+XzrCWzCHpyGzST3NSSK2YC4EnAeeLSdV1a4xXi9TmE2ghmofNZU7PcA6j
zIIspHcEm4/VUn+2t+lvQUS55CsnzNEZvBJaWUbXL97664OU+3J3q4o=
-----END CERTIFICATE-----
