Certificate:
    Data:
        Version: 3 (0x2)
        Serial Number:
            a8:50:ff:65:4c:01:77:5f:56:5e:07:94:df:47:fc:3d
        Signature Algorithm: sha256WithRSAEncryption
        Issuer: CN=Easy-RSA CA
        Validity
            Not Before: Jun 17 00:28:55 2024 GMT
            Not After : Jun 15 00:28:55 2034 GMT
        Subject: CN=client
        Subject Public Key Info:
            Public Key Algorithm: rsaEncryption
                Public-Key: (2048 bit)
                Modulus:
                    00:b1:3f:0f:17:7f:bd:b4:de:2f:6a:a9:ff:38:17:
                    77:21:60:91:61:97:a2:b7:64:67:88:b9:7e:ca:c6:
                    e9:93:5d:18:af:15:fb:e6:c3:ba:ea:fa:48:a4:7b:
                    3b:48:01:4c:60:7b:1f:c7:74:c8:fe:f1:5c:87:63:
                    68:1a:0b:ae:c8:4e:2e:b0:56:6a:d5:14:21:c5:aa:
                    c3:5b:af:c7:9f:01:15:ad:c8:6b:f2:e8:ac:6c:3c:
                    aa:f7:08:71:e9:b1:59:85:d1:bb:89:45:99:3b:fc:
                    c5:3c:03:2a:ce:28:75:9f:b0:14:ec:f0:88:f1:6a:
                    57:c0:ca:96:b0:52:b7:15:50:c1:b2:95:0f:84:e0:
                    cd:fe:18:ae:af:27:f1:8c:6c:43:7a:c7:50:d7:d6:
                    72:6b:bb:a3:50:08:20:79:da:ac:36:e6:67:30:2f:
                    7a:59:0b:b7:0d:3d:19:a5:88:28:42:b4:8f:86:77:
                    b6:fd:dd:08:12:12:5a:d9:92:3d:d7:93:75:74:43:
                    16:e1:05:16:d5:30:1a:f6:65:3f:42:a6:9a:1f:73:
                    f2:ea:36:b9:1f:d8:55:be:2a:32:f2:9c:b2:ab:35:
                    46:a0:83:4a:61:8b:d9:de:d5:f6:b6:b3:5e:b1:15:
                    ee:f7:60:16:b4:ac:cb:02:94:0b:d1:2f:42:04:77:
                    91:43
                Exponent: 65537 (0x10001)
        X509v3 extensions:
            X509v3 Basic Constraints: 
                CA:FALSE
            X509v3 Subject Key Identifier: 
                7D:D5:06:39:64:B3:CB:8C:E8:83:F3:AC:8C:F3:D3:F7:FA:E7:67:F5
            X509v3 Authority Key Identifier: 
                keyid:31:DD:40:F8:24:1A:EA:2B:47:BF:97:DA:8E:F0:01:B7:D6:20:1A:F2
                DirName:/CN=Easy-RSA CA
                serial:6A:E0:82:47:A1:88:BD:88:A7:0F:E5:73:84:E8:C5:C0:01:67:D6:8B
            X509v3 Extended Key Usage: 
                TLS Web Client Authentication
            X509v3 Key Usage: 
                Digital Signature
    Signature Algorithm: sha256WithRSAEncryption
    Signature Value:
        9a:fa:e8:45:07:3a:34:38:f0:b2:0d:ad:0e:b6:e8:0b:b4:89:
        1c:9a:0f:e6:54:61:19:66:e7:c4:bd:d5:18:0f:27:e9:cd:d9:
        25:b2:ca:d5:ef:69:c3:1e:90:eb:ff:5f:48:80:08:bb:13:9a:
        45:e3:1f:34:1f:79:e4:3c:7d:59:6e:f7:1d:c1:7e:b9:1c:7a:
        e5:5e:1b:bb:47:07:33:1b:13:12:ed:84:2e:37:c5:69:40:62:
        9b:8f:a6:e0:53:66:15:c6:ee:bc:2d:74:6e:93:9f:6d:e6:d0:
        ee:7e:98:2b:12:a0:82:09:3b:6a:65:de:ae:34:09:0f:a4:5d:
        01:c9:10:2b:70:33:ce:ae:96:f3:fc:c8:6b:3b:a8:67:f4:b3:
        37:3a:12:c8:e2:97:ca:6f:56:d6:61:8d:b5:82:10:fd:bd:cd:
        9b:8b:ab:6d:c2:ce:05:c7:cf:3d:ed:51:68:d9:f8:7e:e3:b0:
        93:14:e7:69:7c:23:8f:9f:1f:70:af:87:da:50:2c:79:26:a1:
        f4:fd:18:b2:40:d4:c8:92:5e:98:ba:28:da:a8:48:68:5d:a8:
        b9:3c:7c:1e:08:6b:18:2b:85:bb:3e:36:74:fd:00:1e:a6:86:
        57:71:6b:52:5a:b5:6d:57:ba:af:ff:c1:92:be:f7:16:34:04:
        19:71:6c:a0
-----BEGIN CERTIFICATE-----
MIIDVTCCAj2gAwIBAgIRAKhQ/2VMAXdfVl4HlN9H/D0wDQYJKoZIhvcNAQELBQAw
FjEUMBIGA1UEAwwLRWFzeS1SU0EgQ0EwHhcNMjQwNjE3MDAyODU1WhcNMzQwNjE1
MDAyODU1WjARMQ8wDQYDVQQDDAZjbGllbnQwggEiMA0GCSqGSIb3DQEBAQUAA4IB
DwAwggEKAoIBAQCxPw8Xf7203i9qqf84F3chYJFhl6K3ZGeIuX7KxumTXRivFfvm
w7rq+kikeztIAUxgex/HdMj+8VyHY2gaC67ITi6wVmrVFCHFqsNbr8efARWtyGvy
6KxsPKr3CHHpsVmF0buJRZk7/MU8AyrOKHWfsBTs8IjxalfAypawUrcVUMGylQ+E
4M3+GK6vJ/GMbEN6x1DX1nJru6NQCCB52qw25mcwL3pZC7cNPRmliChCtI+Gd7b9
3QgSElrZkj3Xk3V0QxbhBRbVMBr2ZT9Cppofc/LqNrkf2FW+KjLynLKrNUagg0ph
i9ne1fa2s16xFe73YBa0rMsClAvRL0IEd5FDAgMBAAGjgaIwgZ8wCQYDVR0TBAIw
ADAdBgNVHQ4EFgQUfdUGOWSzy4zog/OsjPPT9/rnZ/UwUQYDVR0jBEowSIAUMd1A
+CQa6itHv5fajvABt9YgGvKhGqQYMBYxFDASBgNVBAMMC0Vhc3ktUlNBIENBghRq
4IJHoYi9iKcP5XOE6MXAAWfWizATBgNVHSUEDDAKBggrBgEFBQcDAjALBgNVHQ8E
BAMCB4AwDQYJKoZIhvcNAQELBQADggEBAJr66EUHOjQ48LINrQ626Au0iRyaD+ZU
YRlm58S91RgPJ+nN2SWyytXvacMekOv/X0iACLsTmkXjHzQfeeQ8fVlu9x3Bfrkc
euVeG7tHBzMbExLthC43xWlAYpuPpuBTZhXG7rwtdG6Tn23m0O5+mCsSoIIJO2pl
3q40CQ+kXQHJECtwM86ulvP8yGs7qGf0szc6Esjil8pvVtZhjbWCEP29zZuLq23C
zgXHzz3tUWjZ+H7jsJMU52l8I4+fH3Cvh9pQLHkmofT9GLJA1MiSXpi6KNqoSGhd
qLk8fB4Iaxgrhbs+NnT9AB6mhldxa1JatW1Xuq//wZK+9xY0BBlxbKA=
-----END CERTIFICATE-----
