Certificate:
    Data:
        Version: 3 (0x2)
        Serial Number:
            d7:22:a6:52:1e:d1:8f:fe:d2:1a:52:42:d1:d8:ac:61
        Signature Algorithm: sha256WithRSAEncryption
        Issuer: CN=Easy-RSA CA
        Validity
            Not Before: May 13 07:30:31 2024 GMT
            Not After : May 11 07:30:31 2034 GMT
        Subject: CN=client
        Subject Public Key Info:
            Public Key Algorithm: rsaEncryption
                Public-Key: (2048 bit)
                Modulus:
                    00:a7:7d:44:0f:98:c7:a8:70:0a:f6:4b:63:c3:f7:
                    da:75:fc:c5:8d:1f:f2:bd:9e:79:84:b2:d2:4f:66:
                    92:93:c9:65:28:99:73:68:c8:4e:ad:8b:1a:47:6b:
                    45:ac:46:e6:2a:62:47:e4:93:6a:dc:7d:e2:af:d1:
                    0a:a0:42:40:6d:23:a1:96:25:1c:f3:28:5e:44:32:
                    ee:de:f8:57:fa:99:77:57:bc:cb:41:a8:d9:41:76:
                    f8:80:98:0d:19:84:de:2c:05:58:5f:d3:b7:2b:95:
                    ce:70:86:05:49:14:23:b7:09:95:c2:c0:11:c9:3e:
                    54:68:9b:26:36:c9:d3:8d:88:c8:f5:08:27:32:de:
                    53:14:29:22:4b:d6:ca:02:1e:1a:05:91:a1:4d:f4:
                    d9:3c:af:6a:0f:76:1e:e4:73:13:af:6d:f5:ab:53:
                    60:1a:f4:5a:b7:fa:b1:e7:33:9d:31:98:ca:60:b9:
                    94:49:7d:89:bc:36:e9:d8:8a:00:c1:0a:d1:c6:08:
                    18:dd:da:d7:78:33:c8:20:56:a5:70:e6:9f:28:46:
                    7c:33:4f:9b:56:98:36:d5:05:b9:f3:39:36:f4:19:
                    3e:1b:a1:ae:e2:6d:48:6f:b7:86:3e:57:31:52:ce:
                    1f:df:29:cf:01:7a:f9:0c:f8:0b:22:ec:01:67:8c:
                    d0:17
                Exponent: 65537 (0x10001)
        X509v3 extensions:
            X509v3 Basic Constraints: 
                CA:FALSE
            X509v3 Subject Key Identifier: 
                15:B2:C0:96:AE:EA:2A:81:5D:5C:FD:B1:BD:2A:F0:A6:61:0F:7F:74
            X509v3 Authority Key Identifier: 
                keyid:C7:8B:96:C4:EB:80:04:36:72:A6:A5:1D:E2:A6:D9:8B:78:85:08:CF
                DirName:/CN=Easy-RSA CA
                serial:44:75:F4:29:11:51:85:89:CC:30:6C:D0:6E:5B:57:04:F7:44:16:C7
            X509v3 Extended Key Usage: 
                TLS Web Client Authentication
            X509v3 Key Usage: 
                Digital Signature
    Signature Algorithm: sha256WithRSAEncryption
    Signature Value:
        15:47:31:d5:f5:f3:f0:81:15:e5:2f:e9:a2:e3:7b:6a:d7:e6:
        4a:c9:ee:39:a8:e2:3d:22:61:08:36:53:36:7e:13:8f:21:1b:
        7e:1e:ac:e8:f0:45:f6:92:1e:29:37:ce:31:89:cd:9b:83:a2:
        90:4d:a7:e7:d5:e3:39:c2:41:7a:d7:d9:1a:ba:97:5d:a4:f2:
        4f:b8:e1:4b:e2:d7:18:e7:82:ee:fd:79:1b:28:b2:b6:fd:a1:
        e4:28:73:d5:d7:72:19:e6:bf:d4:57:bb:f3:b0:f8:17:1f:1f:
        2a:85:d7:14:51:ea:09:4f:55:54:af:02:a1:0c:48:80:92:b6:
        cc:b1:42:df:4b:fc:5f:6f:72:c9:dc:aa:4b:c9:fc:78:bd:8d:
        ba:ef:e0:32:f9:65:57:17:fd:da:97:67:86:e4:5c:c1:ce:23:
        1f:2f:75:0e:17:40:5d:ec:0e:3b:91:9f:9c:58:19:bd:b4:e8:
        76:b2:7e:71:da:47:5c:5f:81:34:77:1b:9f:2b:3c:b0:9d:ff:
        d8:e5:a0:0e:b9:89:e5:9a:ed:39:16:ed:53:9c:20:d6:a8:d2:
        2e:c1:ca:9d:42:5a:7f:e7:fb:11:9f:47:b7:da:9d:ad:57:db:
        f3:14:79:5f:01:0e:cf:a4:b0:65:31:65:c2:c0:dd:54:b6:84:
        fb:d2:55:bd
-----BEGIN CERTIFICATE-----
MIIDVTCCAj2gAwIBAgIRANciplIe0Y/+0hpSQtHYrGEwDQYJKoZIhvcNAQELBQAw
FjEUMBIGA1UEAwwLRWFzeS1SU0EgQ0EwHhcNMjQwNTEzMDczMDMxWhcNMzQwNTEx
MDczMDMxWjARMQ8wDQYDVQQDDAZjbGllbnQwggEiMA0GCSqGSIb3DQEBAQUAA4IB
DwAwggEKAoIBAQCnfUQPmMeocAr2S2PD99p1/MWNH/K9nnmEstJPZpKTyWUomXNo
yE6tixpHa0WsRuYqYkfkk2rcfeKv0QqgQkBtI6GWJRzzKF5EMu7e+Ff6mXdXvMtB
qNlBdviAmA0ZhN4sBVhf07crlc5whgVJFCO3CZXCwBHJPlRomyY2ydONiMj1CCcy
3lMUKSJL1soCHhoFkaFN9Nk8r2oPdh7kcxOvbfWrU2Aa9Fq3+rHnM50xmMpguZRJ
fYm8NunYigDBCtHGCBjd2td4M8ggVqVw5p8oRnwzT5tWmDbVBbnzOTb0GT4boa7i
bUhvt4Y+VzFSzh/fKc8BevkM+Asi7AFnjNAXAgMBAAGjgaIwgZ8wCQYDVR0TBAIw
ADAdBgNVHQ4EFgQUFbLAlq7qKoFdXP2xvSrwpmEPf3QwUQYDVR0jBEowSIAUx4uW
xOuABDZypqUd4qbZi3iFCM+hGqQYMBYxFDASBgNVBAMMC0Vhc3ktUlNBIENBghRE
dfQpEVGFicwwbNBuW1cE90QWxzATBgNVHSUEDDAKBggrBgEFBQcDAjALBgNVHQ8E
BAMCB4AwDQYJKoZIhvcNAQELBQADggEBABVHMdX18/CBFeUv6aLje2rX5krJ7jmo
4j0iYQg2UzZ+E48hG34erOjwRfaSHik3zjGJzZuDopBNp+fV4znCQXrX2Rq6l12k
8k+44Uvi1xjngu79eRsosrb9oeQoc9XXchnmv9RXu/Ow+BcfHyqF1xRR6glPVVSv
AqEMSICStsyxQt9L/F9vcsncqkvJ/Hi9jbrv4DL5ZVcX/dqXZ4bkXMHOIx8vdQ4X
QF3sDjuRn5xYGb206HayfnHaR1xfgTR3G58rPLCd/9jloA65ieWa7TkW7VOcINao
0i7Byp1CWn/n+xGfR7fana1X2/MUeV8BDs+ksGUxZcLA3VS2hPvSVb0=
-----END CERTIFICATE-----
