Certificate:
    Data:
        Version: 3 (0x2)
        Serial Number:
            1f:9c:e8:e3:c1:d4:f1:11:ce:8d:e6:bb:f0:af:71:bf
        Signature Algorithm: sha256WithRSAEncryption
        Issuer: CN=Easy-RSA CA
        Validity
            Not Before: Jun 17 00:28:54 2024 GMT
            Not After : Jun 15 00:28:54 2034 GMT
        Subject: CN=server
        Subject Public Key Info:
            Public Key Algorithm: rsaEncryption
                Public-Key: (2048 bit)
                Modulus:
                    00:ce:50:af:d0:e1:ea:b7:b4:b9:a6:57:27:8b:28:
                    86:dc:92:23:7d:8c:d5:95:c1:0f:43:e8:10:75:a8:
                    c4:16:d7:01:f5:f2:6c:51:90:5b:fa:e5:35:00:e5:
                    ad:2a:6a:45:60:ec:8d:9b:ad:5f:3d:37:7b:7c:a4:
                    6d:ae:1e:40:0d:fe:5f:1a:2d:28:82:34:2c:80:a1:
                    58:59:41:97:53:c5:13:26:97:6a:7b:50:fd:75:8b:
                    ff:bc:e4:00:a1:23:92:94:28:5d:20:20:df:04:ca:
                    87:b6:a9:09:1c:ef:95:e3:74:e5:41:42:83:e1:f2:
                    bd:2b:6b:86:da:2b:4e:95:bd:74:71:c7:d5:17:e6:
                    54:c2:94:31:f6:d5:f8:2a:a2:72:8d:58:37:13:f0:
                    50:68:06:6e:22:da:df:b4:6c:31:24:9d:f9:1e:20:
                    be:cd:09:d4:6b:da:db:45:ce:23:01:00:7a:fa:f8:
                    83:12:c4:dc:16:97:48:d1:2c:99:a0:54:7c:68:07:
                    ee:d6:18:3d:25:c1:f0:d7:4e:38:69:39:f4:d1:55:
                    0d:11:81:a6:c2:da:e3:f2:28:a8:f4:9f:43:d3:5f:
                    bd:a9:a6:d4:84:42:5f:80:e7:24:77:e4:8d:bc:22:
                    11:f6:8d:b7:5c:b9:14:bb:b2:d6:0d:78:be:b7:e0:
                    42:39
                Exponent: 65537 (0x10001)
        X509v3 extensions:
            X509v3 Basic Constraints: 
                CA:FALSE
            X509v3 Subject Key Identifier: 
                71:21:44:8E:54:5B:CA:B5:E8:CB:5E:CF:B7:42:73:C9:17:C3:BD:85
            X509v3 Authority Key Identifier: 
                keyid:31:DD:40:F8:24:1A:EA:2B:47:BF:97:DA:8E:F0:01:B7:D6:20:1A:F2
                DirName:/CN=Easy-RSA CA
                serial:6A:E0:82:47:A1:88:BD:88:A7:0F:E5:73:84:E8:C5:C0:01:67:D6:8B
            X509v3 Extended Key Usage: 
                TLS Web Server Authentication
            X509v3 Key Usage: 
                Digital Signature, Key Encipherment
            X509v3 Subject Alternative Name: 
                DNS:server
    Signature Algorithm: sha256WithRSAEncryption
    Signature Value:
        90:89:f8:6d:54:23:4d:ce:98:73:89:a8:2c:e2:3a:3e:f2:85:
        8b:ff:bf:cb:92:9f:50:08:fd:c8:cc:e3:92:33:db:ca:7f:47:
        42:68:12:c0:00:d3:22:ab:43:eb:32:84:34:df:d1:8b:36:d3:
        8b:4e:d4:67:b2:5c:fa:9f:83:6e:c1:51:b3:48:11:e1:66:7b:
        7d:e5:6f:26:d0:c8:d7:24:2d:d9:cc:3f:c5:b0:2c:bb:57:b5:
        e2:96:f8:cb:98:be:02:dd:1d:ca:93:1d:84:3a:8f:9b:09:91:
        96:c8:b2:28:7b:b3:42:16:44:d7:c1:f6:4e:d6:3d:8c:9b:34:
        6d:28:8f:ac:47:e3:e4:43:23:9a:d6:9d:a3:7d:40:7d:86:b7:
        1b:db:23:84:cc:36:57:74:16:8a:bc:b8:07:04:ee:cc:ba:36:
        1f:a9:cb:5a:fc:a9:bb:78:fa:41:a4:5d:05:12:81:0a:f5:09:
        54:c0:92:73:a9:69:68:aa:5d:09:3d:0a:77:f3:2d:46:98:4a:
        36:59:d8:8b:d2:11:da:ad:84:ba:2c:ec:cf:93:7d:1a:e9:ff:
        e5:f0:eb:9e:3d:9d:76:c3:1c:e4:e3:fa:94:6f:e5:f9:60:80:
        58:88:bf:e8:66:11:2e:0e:06:d6:ff:de:74:49:f2:6a:57:ea:
        dd:b7:47:f6
-----BEGIN CERTIFICATE-----
MIIDZzCCAk+gAwIBAgIQH5zo48HU8RHOjea78K9xvzANBgkqhkiG9w0BAQsFADAW
MRQwEgYDVQQDDAtFYXN5LVJTQSBDQTAeFw0yNDA2MTcwMDI4NTRaFw0zNDA2MTUw
MDI4NTRaMBExDzANBgNVBAMMBnNlcnZlcjCCASIwDQYJKoZIhvcNAQEBBQADggEP
ADCCAQoCggEBAM5Qr9Dh6re0uaZXJ4sohtySI32M1ZXBD0PoEHWoxBbXAfXybFGQ
W/rlNQDlrSpqRWDsjZutXz03e3ykba4eQA3+XxotKII0LIChWFlBl1PFEyaXantQ
/XWL/7zkAKEjkpQoXSAg3wTKh7apCRzvleN05UFCg+HyvStrhtorTpW9dHHH1Rfm
VMKUMfbV+Cqico1YNxPwUGgGbiLa37RsMSSd+R4gvs0J1Gva20XOIwEAevr4gxLE
3BaXSNEsmaBUfGgH7tYYPSXB8NdOOGk59NFVDRGBpsLa4/IoqPSfQ9Nfvamm1IRC
X4DnJHfkjbwiEfaNt1y5FLuy1g14vrfgQjkCAwEAAaOBtTCBsjAJBgNVHRMEAjAA
MB0GA1UdDgQWBBRxIUSOVFvKtejLXs+3QnPJF8O9hTBRBgNVHSMESjBIgBQx3UD4
JBrqK0e/l9qO8AG31iAa8qEapBgwFjEUMBIGA1UEAwwLRWFzeS1SU0EgQ0GCFGrg
gkehiL2Ipw/lc4ToxcABZ9aLMBMGA1UdJQQMMAoGCCsGAQUFBwMBMAsGA1UdDwQE
AwIFoDARBgNVHREECjAIggZzZXJ2ZXIwDQYJKoZIhvcNAQELBQADggEBAJCJ+G1U
I03OmHOJqCziOj7yhYv/v8uSn1AI/cjM45Iz28p/R0JoEsAA0yKrQ+syhDTf0Ys2
04tO1GeyXPqfg27BUbNIEeFme33lbybQyNckLdnMP8WwLLtXteKW+MuYvgLdHcqT
HYQ6j5sJkZbIsih7s0IWRNfB9k7WPYybNG0oj6xH4+RDI5rWnaN9QH2GtxvbI4TM
Nld0Foq8uAcE7sy6Nh+py1r8qbt4+kGkXQUSgQr1CVTAknOpaWiqXQk9CnfzLUaY
SjZZ2IvSEdqthLos7M+TfRrp/+Xw6549nXbDHOTj+pRv5flggFiIv+hmES4OBtb/
3nRJ8mpX6t23R/Y=
-----END CERTIFICATE-----
